target datalayout = "e-m:e-p270:32:32-p271:32:32-p272:64:64-i64:64-i128:128-f80:128-n8:16:32:64-S128"
target triple = "x86_64-pc-linux-gnu"

@PyExc_OSError = external global ptr, align 8

; Function Attrs: nounwind uwtable
define hidden i64 @_Py_read(i32 noundef %0, ptr noundef %1, i64 noundef %2) #0 {
  %4 = alloca i64, align 8
  %5 = alloca i32, align 4
  %6 = alloca ptr, align 8
  %7 = alloca i64, align 8
  %8 = alloca i64, align 8
  %9 = alloca i32, align 4
  %10 = alloca i32, align 4
  %11 = alloca ptr, align 8
  %12 = alloca i32, align 4
  store i32 %0, ptr %5, align 4, !tbaa !4
  store ptr %1, ptr %6, align 8, !tbaa !198
  store i64 %2, ptr %7, align 8, !tbaa !186
  call void @llvm.lifetime.start.p0(i64 8, ptr %8) #10
  call void @llvm.lifetime.start.p0(i64 4, ptr %9) #10
  call void @llvm.lifetime.start.p0(i64 4, ptr %10) #10
  store i32 0, ptr %10, align 4, !tbaa !4
  %13 = load i64, ptr %7, align 8, !tbaa !186
  %14 = icmp ugt i64 %13, 9223372036854775807
  br i1 %14, label %15, label %16

15:                                               ; preds = %3
  store i64 9223372036854775807, ptr %7, align 8, !tbaa !186
  br label %16

16:                                               ; preds = %15, %3
  br label %17

17:                                               ; preds = %37, %16
  call void @llvm.lifetime.start.p0(i64 8, ptr %11) #10
  %18 = call ptr @PyEval_SaveThread()
  store ptr %18, ptr %11, align 8, !tbaa !8
  %19 = call ptr @__errno_location() #12
  store i32 0, ptr %19, align 4, !tbaa !4
  %20 = load i32, ptr %5, align 4, !tbaa !4
  %21 = load ptr, ptr %6, align 8, !tbaa !198
  %22 = load i64, ptr %7, align 8, !tbaa !186
  %23 = call i64 @read(i32 noundef %20, ptr noundef %21, i64 noundef %22)
  store i64 %23, ptr %8, align 8, !tbaa !186
  %24 = call ptr @__errno_location() #12
  %25 = load i32, ptr %24, align 4, !tbaa !4
  store i32 %25, ptr %9, align 4, !tbaa !4
  %26 = load ptr, ptr %11, align 8, !tbaa !8
  call void @PyEval_RestoreThread(ptr noundef %26)
  call void @llvm.lifetime.end.p0(i64 8, ptr %11) #10
  br label %27

27:                                               ; preds = %17
  %28 = load i64, ptr %8, align 8, !tbaa !186
  %29 = icmp slt i64 %28, 0
  br i1 %29, label %30, label %37

30:                                               ; preds = %27
  %31 = load i32, ptr %9, align 4, !tbaa !4
  %32 = icmp eq i32 %31, 4
  br i1 %32, label %33, label %37

33:                                               ; preds = %30
  %34 = call i32 @PyErr_CheckSignals()
  store i32 %34, ptr %10, align 4, !tbaa !4
  %35 = icmp ne i32 %34, 0
  %36 = xor i1 %35, true
  br label %37

37:                                               ; preds = %33, %30, %27
  %38 = phi i1 [ false, %30 ], [ false, %27 ], [ %36, %33 ]
  br i1 %38, label %17, label %39, !llvm.loop !199

39:                                               ; preds = %37
  %40 = load i32, ptr %10, align 4, !tbaa !4
  %41 = icmp ne i32 %40, 0
  br i1 %41, label %42, label %45

42:                                               ; preds = %39
  %43 = load i32, ptr %9, align 4, !tbaa !4
  %44 = call ptr @__errno_location() #12
  store i32 %43, ptr %44, align 4, !tbaa !4
  store i64 -1, ptr %4, align 8
  store i32 1, ptr %12, align 4
  br label %55

45:                                               ; preds = %39
  %46 = load i64, ptr %8, align 8, !tbaa !186
  %47 = icmp slt i64 %46, 0
  br i1 %47, label %48, label %53

48:                                               ; preds = %45
  %49 = load ptr, ptr @PyExc_OSError, align 8, !tbaa !178
  %50 = call ptr @PyErr_SetFromErrno(ptr noundef %49)
  %51 = load i32, ptr %9, align 4, !tbaa !4
  %52 = call ptr @__errno_location() #12
  store i32 %51, ptr %52, align 4, !tbaa !4
  store i64 -1, ptr %4, align 8
  store i32 1, ptr %12, align 4
  br label %55

53:                                               ; preds = %45
  %54 = load i64, ptr %8, align 8, !tbaa !186
  store i64 %54, ptr %4, align 8
  store i32 1, ptr %12, align 4
  br label %55

55:                                               ; preds = %53, %48, %42
  call void @llvm.lifetime.end.p0(i64 4, ptr %10) #10
  call void @llvm.lifetime.end.p0(i64 4, ptr %9) #10
  call void @llvm.lifetime.end.p0(i64 8, ptr %8) #10
  %56 = load i64, ptr %4, align 8
  ret i64 %56
}