; Function Attrs: nounwind uwtable
define hidden range(i64 -1, -9223372036854775808) i64 @_Py_read(i32 noundef %0, ptr noundef captures(none) %1, i64 noundef %2) local_unnamed_addr #0 {
  %spec.store.select = tail call i64 @llvm.umin.i64(i64 %2, i64 9223372036854775807)
  br label %4

4:                                                ; preds = %11, %3
  %5 = tail call ptr @PyEval_SaveThread() #17
  %6 = tail call ptr @__errno_location() #19
  store i32 0, ptr %6, align 4, !tbaa !180
  %7 = tail call i64 @read(i32 noundef %0, ptr noundef %1, i64 noundef %spec.store.select) #17
  %8 = load i32, ptr %6, align 4, !tbaa !180
  tail call void @PyEval_RestoreThread(ptr noundef %5) #17
  %9 = icmp slt i64 %7, 0
  %10 = icmp eq i32 %8, 4
  %or.cond = select i1 %9, i1 %10, i1 false
  br i1 %or.cond, label %11, label %13

11:                                               ; preds = %4
  %12 = tail call i32 @PyErr_CheckSignals() #17
  %.not = icmp eq i32 %12, 0
  br i1 %.not, label %4, label %.sink.split, !llvm.loop !191

13:                                               ; preds = %4
  br i1 %9, label %14, label %17

14:                                               ; preds = %13
  %15 = load ptr, ptr @PyExc_OSError, align 8, !tbaa !188
  %16 = tail call ptr @PyErr_SetFromErrno(ptr noundef %15) #17
  br label %.sink.split

.sink.split:                                      ; preds = %11, %14
  %.sink = phi i32 [ %8, %14 ], [ 4, %11 ]
  store i32 %.sink, ptr %6, align 4, !tbaa !180
  br label %17

17:                                               ; preds = %.sink.split, %13
  %.0 = phi i64 [ %7, %13 ], [ -1, %.sink.split ]
  ret i64 %.0
}